; Function Attrs: mustprogress uwtable
define hidden noundef zeroext i1 @_ZNK18OpenImageIO_v2_6_09NullInput10valid_fileERKNSt7__cxx1112basic_stringIcSt11char_traitsIcESaIcEEE(ptr nocapture nonnull readnone align 8 %this, ptr noundef nonnull align 8 dereferenceable(32) %name) unnamed_addr #4 align 2 personality ptr @__gxx_personality_v0 {
entry:
  %args = alloca %"class.std::map", align 8
  %filename = alloca %"class.std::__cxx11::basic_string", align 8
  %agg.tmp = alloca %"class.OpenImageIO_v2_6_0::basic_string_view", align 8
  %agg.tmp2 = alloca %"class.OpenImageIO_v2_6_0::basic_string_view", align 8
  %agg.tmp5 = alloca %"class.OpenImageIO_v2_6_0::basic_string_view", align 8
  %agg.tmp6 = alloca %"class.OpenImageIO_v2_6_0::basic_string_view", align 8
  %0 = getelementptr inbounds i8, ptr %args, i64 8
  store i32 0, ptr %0, align 8
  %_M_parent.i.i.i.i.i = getelementptr inbounds i8, ptr %args, i64 16
  store ptr null, ptr %_M_parent.i.i.i.i.i, align 8
  %_M_left.i.i.i.i.i = getelementptr inbounds i8, ptr %args, i64 24
  store ptr %0, ptr %_M_left.i.i.i.i.i, align 8
  %_M_right.i.i.i.i.i = getelementptr inbounds i8, ptr %args, i64 32
  store ptr %0, ptr %_M_right.i.i.i.i.i, align 8
  %_M_node_count.i.i.i.i.i = getelementptr inbounds i8, ptr %args, i64 40
  store i64 0, ptr %_M_node_count.i.i.i.i.i, align 8
  call void @_ZNSt7__cxx1112basic_stringIcSt11char_traitsIcESaIcEEC1Ev(ptr noundef nonnull align 8 dereferenceable(32) %filename) #18
  %call = invoke noundef zeroext i1 @_ZN18OpenImageIO_v2_6_07Strutil18get_rest_argumentsERKNSt7__cxx1112basic_stringIcSt11char_traitsIcESaIcEEERS6_RSt3mapIS6_S6_St4lessIS6_ESaISt4pairIS7_S6_EEE(ptr noundef nonnull align 8 dereferenceable(32) %name, ptr noundef nonnull align 8 dereferenceable(32) %filename, ptr noundef nonnull align 8 dereferenceable(48) %args)
          to label %invoke.cont unwind label %lpad

invoke.cont:                                      ; preds = %entry
  br i1 %call, label %if.end, label %cleanup

lpad:                                             ; preds = %lor.rhs, %if.end, %entry
  %1 = landingpad { ptr, i32 }
          cleanup
  call void @_ZNSt7__cxx1112basic_stringIcSt11char_traitsIcESaIcEED1Ev(ptr noundef nonnull align 8 dereferenceable(32) %filename) #18
  call void @_ZNSt3mapINSt7__cxx1112basic_stringIcSt11char_traitsIcESaIcEEES5_St4lessIS5_ESaISt4pairIKS5_S5_EEED2Ev(ptr noundef nonnull align 8 dereferenceable(48) %args) #18
  resume { ptr, i32 } %1

if.end:                                           ; preds = %invoke.cont
  %call.i = call noundef ptr @_ZNKSt7__cxx1112basic_stringIcSt11char_traitsIcESaIcEE4dataEv(ptr noundef nonnull align 8 dereferenceable(32) %filename) #18
  store ptr %call.i, ptr %agg.tmp, align 8
  %m_len.i = getelementptr inbounds i8, ptr %agg.tmp, i64 8
  %call2.i = call noundef i64 @_ZNKSt7__cxx1112basic_stringIcSt11char_traitsIcESaIcEE4sizeEv(ptr noundef nonnull align 8 dereferenceable(32) %filename) #18
  store i64 %call2.i, ptr %m_len.i, align 8
  store ptr @.str.3, ptr %agg.tmp2, align 8
  %m_len.i1 = getelementptr inbounds i8, ptr %agg.tmp2, i64 8
  store i64 5, ptr %m_len.i1, align 8
  %call4 = invoke noundef zeroext i1 @_ZN18OpenImageIO_v2_6_07Strutil9ends_withENS_17basic_string_viewIcSt11char_traitsIcEEES4_(ptr noundef nonnull %agg.tmp, ptr noundef nonnull %agg.tmp2)
          to label %invoke.cont3 unwind label %lpad

invoke.cont3:                                     ; preds = %if.end
  br i1 %call4, label %cleanup, label %lor.rhs

lor.rhs:                                          ; preds = %invoke.cont3
  %call.i2 = call noundef ptr @_ZNKSt7__cxx1112basic_stringIcSt11char_traitsIcESaIcEE4dataEv(ptr noundef nonnull align 8 dereferenceable(32) %filename) #18
  store ptr %call.i2, ptr %agg.tmp5, align 8
  %m_len.i3 = getelementptr inbounds i8, ptr %agg.tmp5, i64 8
  %call2.i4 = call noundef i64 @_ZNKSt7__cxx1112basic_stringIcSt11char_traitsIcESaIcEE4sizeEv(ptr noundef nonnull align 8 dereferenceable(32) %filename) #18
  store i64 %call2.i4, ptr %m_len.i3, align 8
  store ptr @.str.4, ptr %agg.tmp6, align 8
  %m_len.i6 = getelementptr inbounds i8, ptr %agg.tmp6, i64 8
  store i64 4, ptr %m_len.i6, align 8
  %call8 = invoke noundef zeroext i1 @_ZN18OpenImageIO_v2_6_07Strutil9ends_withENS_17basic_string_viewIcSt11char_traitsIcEEES4_(ptr noundef nonnull %agg.tmp5, ptr noundef nonnull %agg.tmp6)
          to label %cleanup unwind label %lpad

cleanup:                                          ; preds = %invoke.cont3, %lor.rhs, %invoke.cont
  %retval.0 = phi i1 [ false, %invoke.cont ], [ true, %invoke.cont3 ], [ %call8, %lor.rhs ]
  call void @_ZNSt7__cxx1112basic_stringIcSt11char_traitsIcESaIcEED1Ev(ptr noundef nonnull align 8 dereferenceable(32) %filename) #18
  %2 = load ptr, ptr %_M_parent.i.i.i.i.i, align 8
  invoke void @_ZNSt8_Rb_treeINSt7__cxx1112basic_stringIcSt11char_traitsIcESaIcEEESt4pairIKS5_S5_ESt10_Select1stIS8_ESt4lessIS5_ESaIS8_EE8_M_eraseEPSt13_Rb_tree_nodeIS8_E(ptr noundef nonnull align 8 dereferenceable(48) %args, ptr noundef %2)
          to label %_ZNSt3mapINSt7__cxx1112basic_stringIcSt11char_traitsIcESaIcEEES5_St4lessIS5_ESaISt4pairIKS5_S5_EEED2Ev.exit unwind label %terminate.lpad.i.i

terminate.lpad.i.i:                               ; preds = %cleanup
  %3 = landingpad { ptr, i32 }
          catch ptr null
  %4 = extractvalue { ptr, i32 } %3, 0
  call void @__clang_call_terminate(ptr %4) #19
  unreachable

_ZNSt3mapINSt7__cxx1112basic_stringIcSt11char_traitsIcESaIcEEES5_St4lessIS5_ESaISt4pairIKS5_S5_EEED2Ev.exit: ; preds = %cleanup
  ret i1 %retval.0
}